target datalayout = "e-m:e-p270:32:32-p271:32:32-p272:64:64-i64:64-i128:128-f80:128-n8:16:32:64-S128"
target triple = "x86_64-pc-linux-gnu"

%class.KRegister = type { i32 }
%class.MachNode = type { %class.Node.base, i8, i16, ptr }
%class.Node.base = type <{ ptr, ptr, ptr, i32, i32, i32, i32, i32, i32, i32 }>
%class.Node = type <{ ptr, ptr, ptr, i32, i32, i32, i32, i32, i32, i32, [4 x i8] }>
%class.MachTypeNode = type { %class.MachNode, ptr }
%class.mask_opers_evexNode = type { %class.MachTypeNode, [4 x ptr] }

@_ZL6knoreg = internal constant %class.KRegister { i32 -1 }, align 4
@_ZN19Abstract_VM_Version9_featuresE = external global i64, align 8

; Function Attrs: mustprogress nounwind uwtable
define linkonce_odr hidden void @_ZN9KRegisterC2Eib(ptr noundef nonnull align 4 dereferenceable(4) %0, i32 noundef %1, i1 noundef zeroext %2) unnamed_addr #1 comdat align 2 {
  %4 = alloca ptr, align 8
  %5 = alloca i32, align 4
  %6 = alloca i8, align 1
  store ptr %0, ptr %4, align 8
  store i32 %1, ptr %5, align 4
  %7 = zext i1 %2 to i8
  store i8 %7, ptr %6, align 1
  %8 = load ptr, ptr %4, align 8
  %9 = getelementptr inbounds %class.KRegister, ptr %8, i32 0, i32 0
  %10 = load i32, ptr %5, align 4
  store i32 %10, ptr %9, align 4
  ret void
}

; Function Attrs: mustprogress nounwind uwtable
define linkonce_odr hidden i32 @_Z12as_KRegisteri(i32 noundef %0) #1 comdat {
  %2 = alloca %class.KRegister, align 4
  %3 = alloca i32, align 4
  store i32 %0, ptr %3, align 4
  %4 = load i32, ptr %3, align 4
  %5 = icmp sle i32 0, %4
  br i1 %5, label %6, label %11

6:                                                ; preds = %1
  %7 = load i32, ptr %3, align 4
  %8 = icmp slt i32 %7, 8
  br i1 %8, label %9, label %11

9:                                                ; preds = %6
  %10 = load i32, ptr %3, align 4
  call void @_ZN9KRegisterC2Eib(ptr noundef nonnull align 4 dereferenceable(4) %2, i32 noundef %10, i1 noundef zeroext false)
  br label %12

11:                                               ; preds = %6, %1
  call void @llvm.memcpy.p0.p0.i64(ptr align 4 %2, ptr align 4 @_ZL6knoreg, i64 4, i1 false)
  br label %12

12:                                               ; preds = %11, %9
  %13 = getelementptr inbounds %class.KRegister, ptr %2, i32 0, i32 0
  %14 = load i32, ptr %13, align 4
  ret i32 %14
}

; Function Attrs: mustprogress nounwind uwtable
define linkonce_odr hidden i32 @_ZNK8MachOper12as_KRegisterEP13PhaseRegAllocPK4Nodei(ptr noundef nonnull align 8 dereferenceable(8) %0, ptr noundef %1, ptr noundef %2, i32 noundef %3) #1 comdat align 2 {
  %5 = alloca %class.KRegister, align 4
  %6 = alloca ptr, align 8
  %7 = alloca ptr, align 8
  %8 = alloca ptr, align 8
  %9 = alloca i32, align 4
  store ptr %0, ptr %6, align 8
  store ptr %1, ptr %7, align 8
  store ptr %2, ptr %8, align 8
  store i32 %3, ptr %9, align 4
  %10 = load ptr, ptr %6, align 8
  %11 = load ptr, ptr %7, align 8
  %12 = load ptr, ptr %8, align 8
  %13 = load i32, ptr %9, align 4
  %14 = load ptr, ptr %10, align 8
  %15 = getelementptr inbounds ptr, ptr %14, i64 5
  %16 = load ptr, ptr %15, align 8
  %17 = call noundef i32 %16(ptr noundef nonnull align 8 dereferenceable(8) %10, ptr noundef %11, ptr noundef %12, i32 noundef %13)
  %18 = call i32 @_Z12as_KRegisteri(i32 noundef %17)
  %19 = getelementptr inbounds %class.KRegister, ptr %5, i32 0, i32 0
  store i32 %18, ptr %19, align 4
  %20 = getelementptr inbounds %class.KRegister, ptr %5, i32 0, i32 0
  %21 = load i32, ptr %20, align 4
  ret i32 %21
}

; Function Attrs: mustprogress nounwind uwtable
define linkonce_odr hidden i32 @_ZNK8MachOper12as_KRegisterEP13PhaseRegAllocPK4Node(ptr noundef nonnull align 8 dereferenceable(8) %0, ptr noundef %1, ptr noundef %2) #1 comdat align 2 {
  %4 = alloca %class.KRegister, align 4
  %5 = alloca ptr, align 8
  %6 = alloca ptr, align 8
  %7 = alloca ptr, align 8
  store ptr %0, ptr %5, align 8
  store ptr %1, ptr %6, align 8
  store ptr %2, ptr %7, align 8
  %8 = load ptr, ptr %5, align 8
  %9 = load ptr, ptr %6, align 8
  %10 = load ptr, ptr %7, align 8
  %11 = load ptr, ptr %8, align 8
  %12 = getelementptr inbounds ptr, ptr %11, i64 4
  %13 = load ptr, ptr %12, align 8
  %14 = call noundef i32 %13(ptr noundef nonnull align 8 dereferenceable(8) %8, ptr noundef %9, ptr noundef %10)
  %15 = call i32 @_Z12as_KRegisteri(i32 noundef %14)
  %16 = getelementptr inbounds %class.KRegister, ptr %4, i32 0, i32 0
  store i32 %15, ptr %16, align 4
  %17 = getelementptr inbounds %class.KRegister, ptr %4, i32 0, i32 0
  %18 = load i32, ptr %17, align 4
  ret i32 %18
}

; Function Attrs: mustprogress nounwind uwtable
define linkonce_odr hidden noundef zeroext i1 @_ZN10VM_Version17supports_avx512dqEv() #1 comdat align 2 {
  %1 = load i64, ptr @_ZN19Abstract_VM_Version9_featuresE, align 8
  %2 = and i64 %1, 268435456
  %3 = icmp ne i64 %2, 0
  ret i1 %3
}

; Function Attrs: mustprogress nounwind uwtable
define linkonce_odr hidden noundef ptr @_ZNK4Node2inEj(ptr noundef nonnull align 8 dereferenceable(52) %0, i32 noundef %1) #1 comdat align 2 {
  %3 = alloca ptr, align 8
  %4 = alloca i32, align 4
  store ptr %0, ptr %3, align 8
  store i32 %1, ptr %4, align 4
  %5 = load ptr, ptr %3, align 8
  %6 = getelementptr inbounds %class.Node, ptr %5, i32 0, i32 1
  %7 = load ptr, ptr %6, align 8
  %8 = load i32, ptr %4, align 4
  %9 = zext i32 %8 to i64
  %10 = getelementptr inbounds ptr, ptr %7, i64 %9
  %11 = load ptr, ptr %10, align 8
  ret ptr %11
}

; Function Attrs: mustprogress nounwind uwtable
define linkonce_odr hidden noundef ptr @_ZNK19mask_opers_evexNode10opnd_arrayEj(ptr noundef nonnull align 8 dereferenceable(104) %0, i32 noundef %1) #1 comdat align 2 {
  %3 = alloca ptr, align 8
  %4 = alloca i32, align 4
  store ptr %0, ptr %3, align 8
  store i32 %1, ptr %4, align 4
  %5 = load ptr, ptr %3, align 8
  %6 = getelementptr inbounds %class.mask_opers_evexNode, ptr %5, i32 0, i32 1
  %7 = load i32, ptr %4, align 4
  %8 = zext i32 %7 to i64
  %9 = getelementptr inbounds [4 x ptr], ptr %6, i64 0, i64 %8
  %10 = load ptr, ptr %9, align 8
  ret ptr %10
}

; Function Attrs: mustprogress nounwind uwtable
define hidden void @_ZNK19mask_opers_evexNode4emitEP17C2_MacroAssemblerP13PhaseRegAlloc(ptr noundef nonnull align 8 dereferenceable(104) %0, ptr noundef %1, ptr noundef %2) unnamed_addr #1 align 2 {
  %4 = alloca ptr, align 8
  %5 = alloca ptr, align 8
  %6 = alloca ptr, align 8
  %7 = alloca i32, align 4
  %8 = alloca i32, align 4
  %9 = alloca i32, align 4
  %10 = alloca i32, align 4
  %11 = alloca ptr, align 8
  %12 = alloca ptr, align 8
  %13 = alloca i32, align 4
  %14 = alloca %class.KRegister, align 4
  %15 = alloca %class.KRegister, align 4
  %16 = alloca %class.KRegister, align 4
  store ptr %0, ptr %4, align 8
  store ptr %1, ptr %5, align 8
  store ptr %2, ptr %6, align 8
  %17 = load ptr, ptr %4, align 8
  store i32 1, ptr %7, align 4
  store i32 1, ptr %8, align 4
  %18 = load i32, ptr %8, align 4
  %19 = call noundef ptr @_ZNK19mask_opers_evexNode10opnd_arrayEj(ptr noundef nonnull align 8 dereferenceable(104) %17, i32 noundef 1)
  %20 = load ptr, ptr %19, align 8
  %21 = getelementptr inbounds ptr, ptr %20, i64 1
  %22 = load ptr, ptr %21, align 8
  %23 = call noundef i32 %22(ptr noundef nonnull align 8 dereferenceable(8) %19)
  %24 = add i32 %18, %23
  store i32 %24, ptr %9, align 4
  %25 = load i32, ptr %9, align 4
  %26 = call noundef ptr @_ZNK19mask_opers_evexNode10opnd_arrayEj(ptr noundef nonnull align 8 dereferenceable(104) %17, i32 noundef 2)
  %27 = load ptr, ptr %26, align 8
  %28 = getelementptr inbounds ptr, ptr %27, i64 1
  %29 = load ptr, ptr %28, align 8
  %30 = call noundef i32 %29(ptr noundef nonnull align 8 dereferenceable(8) %26)
  %31 = add i32 %25, %30
  store i32 %31, ptr %10, align 4
  %32 = call noundef ptr @_ZNK19mask_opers_evexNode10opnd_arrayEj(ptr noundef nonnull align 8 dereferenceable(104) %17, i32 noundef 1)
  %33 = call noundef i32 @_ZNK8MachNode13operand_indexEPK8MachOper(ptr noundef nonnull align 8 dereferenceable(64) %17, ptr noundef %32)
  %34 = call noundef ptr @_ZNK4Node2inEj(ptr noundef nonnull align 8 dereferenceable(52) %17, i32 noundef %33)
  store ptr %34, ptr %11, align 8
  %35 = call noundef ptr @_ZNK19mask_opers_evexNode10opnd_arrayEj(ptr noundef nonnull align 8 dereferenceable(104) %17, i32 noundef 2)
  %36 = call noundef i32 @_ZNK8MachNode13operand_indexEPK8MachOper(ptr noundef nonnull align 8 dereferenceable(64) %17, ptr noundef %35)
  %37 = call noundef ptr @_ZNK4Node2inEj(ptr noundef nonnull align 8 dereferenceable(52) %17, i32 noundef %36)
  store ptr %37, ptr %12, align 8
  %38 = call noundef i32 @_ZN7Matcher13vector_lengthEPK4Node(ptr noundef %17)
  store i32 %38, ptr %13, align 4
  %39 = load i32, ptr %13, align 4
  %40 = icmp ult i32 %39, 16
  br i1 %40, label %41, label %44

41:                                               ; preds = %3
  %42 = call noundef zeroext i1 @_ZN10VM_Version17supports_avx512dqEv()
  br i1 %42, label %44, label %43

43:                                               ; preds = %41
  br label %46

44:                                               ; preds = %41, %3
  %45 = load i32, ptr %13, align 4
  br label %46

46:                                               ; preds = %44, %43
  %47 = phi i32 [ 16, %43 ], [ %45, %44 ]
  store i32 %47, ptr %13, align 4
  %48 = load ptr, ptr %5, align 8
  %49 = load ptr, ptr %17, align 8
  %50 = getelementptr inbounds ptr, ptr %49, i64 41
  %51 = load ptr, ptr %50, align 8
  %52 = call noundef i32 %51(ptr noundef nonnull align 8 dereferenceable(104) %17)
  %53 = load i32, ptr %13, align 4
  %54 = call noundef ptr @_ZNK19mask_opers_evexNode10opnd_arrayEj(ptr noundef nonnull align 8 dereferenceable(104) %17, i32 noundef 0)
  %55 = load ptr, ptr %6, align 8
  %56 = call i32 @_ZNK8MachOper12as_KRegisterEP13PhaseRegAllocPK4Node(ptr noundef nonnull align 8 dereferenceable(8) %54, ptr noundef %55, ptr noundef %17)
  %57 = getelementptr inbounds %class.KRegister, ptr %14, i32 0, i32 0
  store i32 %56, ptr %57, align 4
  %58 = call noundef ptr @_ZNK19mask_opers_evexNode10opnd_arrayEj(ptr noundef nonnull align 8 dereferenceable(104) %17, i32 noundef 1)
  %59 = load ptr, ptr %6, align 8
  %60 = load i32, ptr %8, align 4
  %61 = call i32 @_ZNK8MachOper12as_KRegisterEP13PhaseRegAllocPK4Nodei(ptr noundef nonnull align 8 dereferenceable(8) %58, ptr noundef %59, ptr noundef %17, i32 noundef %60)
  %62 = getelementptr inbounds %class.KRegister, ptr %15, i32 0, i32 0
  store i32 %61, ptr %62, align 4
  %63 = call noundef ptr @_ZNK19mask_opers_evexNode10opnd_arrayEj(ptr noundef nonnull align 8 dereferenceable(104) %17, i32 noundef 2)
  %64 = load ptr, ptr %6, align 8
  %65 = load i32, ptr %9, align 4
  %66 = call i32 @_ZNK8MachOper12as_KRegisterEP13PhaseRegAllocPK4Nodei(ptr noundef nonnull align 8 dereferenceable(8) %63, ptr noundef %64, ptr noundef %17, i32 noundef %65)
  %67 = getelementptr inbounds %class.KRegister, ptr %16, i32 0, i32 0
  store i32 %66, ptr %67, align 4
  %68 = getelementptr inbounds %class.KRegister, ptr %14, i32 0, i32 0
  %69 = load i32, ptr %68, align 4
  %70 = getelementptr inbounds %class.KRegister, ptr %15, i32 0, i32 0
  %71 = load i32, ptr %70, align 4
  %72 = getelementptr inbounds %class.KRegister, ptr %16, i32 0, i32 0
  %73 = load i32, ptr %72, align 4
  call void @_ZN17C2_MacroAssembler9masked_opEii9KRegisterS0_S0_(ptr noundef nonnull align 8 dereferenceable(40) %48, i32 noundef %52, i32 noundef %53, i32 %69, i32 %71, i32 %73)
  ret void
}