; Function Attrs: mustprogress nounwind uwtable
define hidden void @_ZNK19mask_opers_evexNode4emitEP17C2_MacroAssemblerP13PhaseRegAlloc(ptr noundef nonnull align 8 dereferenceable(104) %0, ptr noundef %1, ptr noundef %2) unnamed_addr #3 align 2 {
  %4 = getelementptr inbounds i8, ptr %0, i64 80
  %5 = load ptr, ptr %4, align 8
  %6 = load ptr, ptr %5, align 8
  %7 = getelementptr inbounds i8, ptr %6, i64 8
  %8 = load ptr, ptr %7, align 8
  %9 = tail call noundef i32 %8(ptr noundef nonnull align 8 dereferenceable(8) %5) #23
  %10 = getelementptr inbounds i8, ptr %0, i64 88
  %11 = load ptr, ptr %10, align 8
  %12 = load ptr, ptr %11, align 8
  %13 = getelementptr inbounds i8, ptr %12, i64 8
  %14 = load ptr, ptr %13, align 8
  %15 = tail call noundef i32 %14(ptr noundef nonnull align 8 dereferenceable(8) %11) #23
  %16 = load ptr, ptr %4, align 8
  %17 = tail call noundef i32 @_ZNK8MachNode13operand_indexEPK8MachOper(ptr noundef nonnull align 8 dereferenceable(64) %0, ptr noundef %16) #23
  %18 = load ptr, ptr %10, align 8
  %19 = tail call noundef i32 @_ZNK8MachNode13operand_indexEPK8MachOper(ptr noundef nonnull align 8 dereferenceable(64) %0, ptr noundef %18) #23
  %20 = tail call noundef i32 @_ZN7Matcher13vector_lengthEPK4Node(ptr noundef nonnull %0) #23
  %21 = icmp ult i32 %20, 16
  br i1 %21, label %22, label %25

22:                                               ; preds = %3
  %23 = load i64, ptr @_ZN19Abstract_VM_Version9_featuresE, align 8
  %24 = and i64 %23, 268435456
  %.not = icmp eq i64 %24, 0
  br i1 %.not, label %26, label %25

25:                                               ; preds = %22, %3
  br label %26

26:                                               ; preds = %22, %25
  %27 = phi i32 [ %20, %25 ], [ 16, %22 ]
  %28 = getelementptr inbounds i8, ptr %0, i64 72
  %29 = add i32 %9, 1
  %30 = load ptr, ptr %0, align 8
  %31 = getelementptr inbounds i8, ptr %30, i64 328
  %32 = load ptr, ptr %31, align 8
  %33 = tail call noundef i32 %32(ptr noundef nonnull align 8 dereferenceable(104) %0) #23
  %34 = load ptr, ptr %28, align 8
  %35 = load ptr, ptr %34, align 8
  %36 = getelementptr inbounds i8, ptr %35, i64 32
  %37 = load ptr, ptr %36, align 8
  %38 = tail call noundef i32 %37(ptr noundef nonnull align 8 dereferenceable(8) %34, ptr noundef %2, ptr noundef nonnull %0) #23
  %or.cond.i.i = icmp ult i32 %38, 8
  %spec.select.i.i = select i1 %or.cond.i.i, i32 %38, i32 -1
  %39 = load ptr, ptr %4, align 8
  %40 = load ptr, ptr %39, align 8
  %41 = getelementptr inbounds i8, ptr %40, i64 40
  %42 = load ptr, ptr %41, align 8
  %43 = tail call noundef i32 %42(ptr noundef nonnull align 8 dereferenceable(8) %39, ptr noundef %2, ptr noundef nonnull %0, i32 noundef 1) #23
  %or.cond.i.i13 = icmp ult i32 %43, 8
  %spec.select.i.i14 = select i1 %or.cond.i.i13, i32 %43, i32 -1
  %44 = load ptr, ptr %10, align 8
  %45 = load ptr, ptr %44, align 8
  %46 = getelementptr inbounds i8, ptr %45, i64 40
  %47 = load ptr, ptr %46, align 8
  %48 = tail call noundef i32 %47(ptr noundef nonnull align 8 dereferenceable(8) %44, ptr noundef %2, ptr noundef nonnull %0, i32 noundef %29) #23
  %or.cond.i.i15 = icmp ult i32 %48, 8
  %spec.select.i.i16 = select i1 %or.cond.i.i15, i32 %48, i32 -1
  tail call void @_ZN17C2_MacroAssembler9masked_opEii9KRegisterS0_S0_(ptr noundef nonnull align 8 dereferenceable(40) %1, i32 noundef %33, i32 noundef %27, i32 %spec.select.i.i, i32 %spec.select.i.i14, i32 %spec.select.i.i16) #23
  ret void
}